; Function Attrs: mustprogress nofree norecurse nosync nounwind willreturn memory(argmem: readwrite) uwtable
define ptr @ulistfmt_resultAsValue_75(ptr noundef readonly %uresult, ptr nocapture noundef %ec) local_unnamed_addr #8 {
entry:
  %0 = load i32, ptr %ec, align 4
  %cmp.i.i = icmp slt i32 %0, 1
  br i1 %cmp.i.i, label %if.end.i, label %_ZN6icu_7513IcuCApiHelperI14UFormattedListNS_18UFormattedListImplELi1179407188EE8validateEPKS1_R10UErrorCode.exit

if.end.i:                                         ; preds = %entry
  %cmp.i = icmp eq ptr %uresult, null
  br i1 %cmp.i, label %return.sink.split.i, label %if.end2.i

if.end2.i:                                        ; preds = %if.end.i
  %add.ptr.i = getelementptr inbounds i8, ptr %uresult, i64 16
  %1 = load i32, ptr %add.ptr.i, align 4
  %cmp3.not.i = icmp eq i32 %1, 1179407188
  br i1 %cmp3.not.i, label %_ZN6icu_7513IcuCApiHelperI14UFormattedListNS_18UFormattedListImplELi1179407188EE8validateEPKS1_R10UErrorCode.exit, label %return.sink.split.i

return.sink.split.i:                              ; preds = %if.end2.i, %if.end.i
  %.sink.i = phi i32 [ 1, %if.end.i ], [ 3, %if.end2.i ]
  store i32 %.sink.i, ptr %ec, align 4
  br label %_ZN6icu_7513IcuCApiHelperI14UFormattedListNS_18UFormattedListImplELi1179407188EE8validateEPKS1_R10UErrorCode.exit

_ZN6icu_7513IcuCApiHelperI14UFormattedListNS_18UFormattedListImplELi1179407188EE8validateEPKS1_R10UErrorCode.exit: ; preds = %entry, %if.end2.i, %return.sink.split.i
  %2 = phi i32 [ %0, %entry ], [ %0, %if.end2.i ], [ %.sink.i, %return.sink.split.i ]
  %retval.0.i = phi ptr [ null, %entry ], [ %uresult, %if.end2.i ], [ null, %return.sink.split.i ]
  %cmp.i2 = icmp slt i32 %2, 1
  %spec.select = select i1 %cmp.i2, ptr %retval.0.i, ptr null
  ret ptr %spec.select
}